target datalayout = "e-m:e-p270:32:32-p271:32:32-p272:64:64-i64:64-i128:128-f80:128-n8:16:32:64-S128"
target triple = "x86_64-pc-linux-gnu"

%class.OopIterateClosure = type { %class.OopClosure, ptr }
%class.OopClosure = type { ptr }
%class.XOnStackNMethodClosure = type { %class.NMethodClosure, ptr }
%class.NMethodClosure = type { ptr }
%class.XStackWatermark = type { %class.StackWatermark, %class.XLoadBarrierOopClosure, %class.XOnStackNMethodClosure, %class.ThreadLocalAllocStats }
%class.StackWatermark = type { ptr, i32, i64, ptr, ptr, ptr, %class.Mutex, i32, %class.GrowableArrayCHeap }
%class.Mutex = type { ptr, %class.PlatformMonitor, ptr }
%class.PlatformMonitor = type { %class.PlatformMutex, %union.pthread_cond_t }
%class.PlatformMutex = type { %union.pthread_mutex_t }
%union.pthread_mutex_t = type { %struct.__pthread_mutex_s }
%struct.__pthread_mutex_s = type { i32, i32, i32, i32, i32, i16, i16, %struct.__pthread_internal_list }
%struct.__pthread_internal_list = type { ptr, ptr }
%union.pthread_cond_t = type { %struct.__pthread_cond_s }
%struct.__pthread_cond_s = type { %union.__atomic_wide_counter, %union.__atomic_wide_counter, [2 x i32], [2 x i32], i32, i32, [2 x i32] }
%union.__atomic_wide_counter = type { i64 }
%class.GrowableArrayCHeap = type { %class.GrowableArrayWithAllocator }
%class.GrowableArrayWithAllocator = type { %class.GrowableArrayView }
%class.GrowableArrayView = type { %class.GrowableArrayBase, ptr }
%class.GrowableArrayBase = type { i32, i32 }
%class.XLoadBarrierOopClosure = type { %class.BasicOopIterateClosure }
%class.BasicOopIterateClosure = type { %class.OopIterateClosure }
%class.ThreadLocalAllocStats = type { i32, i32, i32, i64, i64, i64, i64, i64, i32, i32 }
%class.XThreadLocalData = type { i64, %class.XMarkThreadLocalStacks, ptr }
%class.XMarkThreadLocalStacks = type { ptr, [16 x ptr] }
%class.Thread = type { %class.ThreadShadow.base, i64, [43 x i64], ptr, ptr, i32, ptr, i64, i64, %class.ThreadLocalAllocBuffer, i64, %class.ThreadHeapSampler, %class.ThreadStatisticalInfo, %class.JfrThreadLocal, ptr, ptr, ptr, ptr, ptr, ptr, i64, i32, i32, ptr, i32, i32, i32, i32, i8, ptr }
%class.ThreadShadow.base = type <{ ptr, ptr, ptr, i32 }>
%class.ThreadLocalAllocBuffer = type <{ ptr, ptr, ptr, ptr, ptr, i64, i64, i64, i64, i32, i32, i32, i32, i64, %class.AdaptiveWeightedAverage, [4 x i8] }>
%class.AdaptiveWeightedAverage = type { float, i32, i32, i8, float }
%class.ThreadHeapSampler = type { i64 }
%class.ThreadStatisticalInfo = type { i64, i64 }
%class.JfrThreadLocal = type <{ ptr, ptr, ptr, ptr, ptr, ptr, ptr, ptr, ptr, ptr, %class.RefCountHandle, i64, i64, i64, i64, i64, i64, i64, i64, i64, i64, i64, i32, i32, i32, i16, i8, i8, i8, i8, i8, [5 x i8] }>
%class.RefCountHandle = type { ptr }

@XAddressBadMask = external global i64, align 8
@XGlobalPhase = external global i32, align 4

; Function Attrs: mustprogress nounwind uwtable
define linkonce_odr hidden noundef ptr @_ZN6Thread7gc_dataI16XThreadLocalDataEEPT_v(ptr noundef nonnull align 8 dereferenceable(888) %0) #1 comdat align 2 {
  %2 = alloca ptr, align 8
  store ptr %0, ptr %2, align 8
  %3 = load ptr, ptr %2, align 8
  %4 = getelementptr inbounds %class.Thread, ptr %3, i32 0, i32 2
  ret ptr %4
}

; Function Attrs: mustprogress nounwind uwtable
define linkonce_odr hidden noundef ptr @_ZN16XThreadLocalData4dataEP6Thread(ptr noundef %0) #1 comdat align 2 {
  %2 = alloca ptr, align 8
  store ptr %0, ptr %2, align 8
  %3 = load ptr, ptr %2, align 8
  %4 = call noundef ptr @_ZN6Thread7gc_dataI16XThreadLocalDataEEPT_v(ptr noundef nonnull align 8 dereferenceable(888) %3)
  ret ptr %4
}

; Function Attrs: mustprogress nounwind uwtable
define linkonce_odr hidden void @_ZN16XThreadLocalData20set_address_bad_maskEP6Threadm(ptr noundef %0, i64 noundef %1) #1 comdat align 2 {
  %3 = alloca ptr, align 8
  %4 = alloca i64, align 8
  store ptr %0, ptr %3, align 8
  store i64 %1, ptr %4, align 8
  %5 = load i64, ptr %4, align 8
  %6 = load ptr, ptr %3, align 8
  %7 = call noundef ptr @_ZN16XThreadLocalData4dataEP6Thread(ptr noundef %6)
  %8 = getelementptr inbounds %class.XThreadLocalData, ptr %7, i32 0, i32 0
  store i64 %5, ptr %8, align 8
  ret void
}

; Function Attrs: mustprogress nounwind uwtable
define linkonce_odr hidden void @_ZN7XVerify24verify_thread_frames_badEP10JavaThread(ptr noundef %0) #1 comdat align 2 {
  %2 = alloca ptr, align 8
  store ptr %0, ptr %2, align 8
  ret void
}

; Function Attrs: mustprogress nounwind uwtable
define linkonce_odr hidden void @_ZN16XThreadLocalData17do_invisible_rootIPFvPP7oopDescEEEvP6ThreadT_(ptr noundef %0, ptr noundef %1) #1 comdat align 2 {
  %3 = alloca ptr, align 8
  %4 = alloca ptr, align 8
  store ptr %0, ptr %3, align 8
  store ptr %1, ptr %4, align 8
  %5 = load ptr, ptr %3, align 8
  %6 = call noundef ptr @_ZN16XThreadLocalData4dataEP6Thread(ptr noundef %5)
  %7 = getelementptr inbounds %class.XThreadLocalData, ptr %6, i32 0, i32 2
  %8 = load ptr, ptr %7, align 8
  %9 = icmp ne ptr %8, null
  br i1 %9, label %10, label %16

10:                                               ; preds = %2
  %11 = load ptr, ptr %4, align 8
  %12 = load ptr, ptr %3, align 8
  %13 = call noundef ptr @_ZN16XThreadLocalData4dataEP6Thread(ptr noundef %12)
  %14 = getelementptr inbounds %class.XThreadLocalData, ptr %13, i32 0, i32 2
  %15 = load ptr, ptr %14, align 8
  call void %11(ptr noundef %15)
  br label %16

16:                                               ; preds = %10, %2
  ret void
}

; Function Attrs: mustprogress nounwind uwtable
define hidden noundef ptr @_ZN15XStackWatermark20closure_from_contextEPv(ptr noundef nonnull align 8 dereferenceable(272) %0, ptr noundef %1) #1 align 2 {
  %3 = alloca ptr, align 8
  %4 = alloca ptr, align 8
  %5 = alloca ptr, align 8
  store ptr %0, ptr %4, align 8
  store ptr %1, ptr %5, align 8
  %6 = load ptr, ptr %4, align 8
  %7 = load ptr, ptr %5, align 8
  %8 = icmp ne ptr %7, null
  br i1 %8, label %9, label %11

9:                                                ; preds = %2
  %10 = load ptr, ptr %5, align 8
  store ptr %10, ptr %3, align 8
  br label %13

11:                                               ; preds = %2
  %12 = getelementptr inbounds %class.XStackWatermark, ptr %6, i32 0, i32 1
  store ptr %12, ptr %3, align 8
  br label %13

13:                                               ; preds = %11, %9
  %14 = load ptr, ptr %3, align 8
  ret ptr %14
}

; Function Attrs: mustprogress nounwind uwtable
define linkonce_odr hidden void @_ZN7XVerify22verify_thread_head_badEP10JavaThread(ptr noundef %0) #1 comdat align 2 {
  %2 = alloca ptr, align 8
  store ptr %0, ptr %2, align 8
  ret void
}

; Function Attrs: mustprogress nounwind uwtable
define hidden void @_ZN15XStackWatermark21start_processing_implEPv(ptr noundef nonnull align 8 dereferenceable(272) %0, ptr noundef %1) unnamed_addr #1 align 2 {
  %3 = alloca ptr, align 8
  %4 = alloca ptr, align 8
  store ptr %0, ptr %3, align 8
  store ptr %1, ptr %4, align 8
  %5 = load ptr, ptr %3, align 8
  %6 = getelementptr inbounds %class.StackWatermark, ptr %5, i32 0, i32 4
  %7 = load ptr, ptr %6, align 8
  call void @_ZN7XVerify22verify_thread_head_badEP10JavaThread(ptr noundef %7)
  %8 = getelementptr inbounds %class.StackWatermark, ptr %5, i32 0, i32 4
  %9 = load ptr, ptr %8, align 8
  %10 = load ptr, ptr %4, align 8
  %11 = call noundef ptr @_ZN15XStackWatermark20closure_from_contextEPv(ptr noundef nonnull align 8 dereferenceable(272) %5, ptr noundef %10)
  %12 = getelementptr inbounds %class.XStackWatermark, ptr %5, i32 0, i32 2
  %13 = load ptr, ptr %9, align 8
  %14 = getelementptr inbounds ptr, ptr %13, i64 23
  %15 = load ptr, ptr %14, align 8
  call void %15(ptr noundef nonnull align 8 dereferenceable(1800) %9, ptr noundef %11, ptr noundef %12)
  %16 = getelementptr inbounds %class.StackWatermark, ptr %5, i32 0, i32 4
  %17 = load ptr, ptr %16, align 8
  call void @_ZN16XThreadLocalData17do_invisible_rootIPFvPP7oopDescEEEvP6ThreadT_(ptr noundef %17, ptr noundef @_ZN8XBarrier40load_barrier_on_invisible_root_oop_fieldEPP7oopDesc)
  %18 = getelementptr inbounds %class.StackWatermark, ptr %5, i32 0, i32 4
  %19 = load ptr, ptr %18, align 8
  call void @_ZN7XVerify24verify_thread_frames_badEP10JavaThread(ptr noundef %19)
  %20 = getelementptr inbounds %class.StackWatermark, ptr %5, i32 0, i32 4
  %21 = load ptr, ptr %20, align 8
  %22 = load i64, ptr @XAddressBadMask, align 8
  call void @_ZN16XThreadLocalData20set_address_bad_maskEP6Threadm(ptr noundef %21, i64 noundef %22)
  %23 = load i32, ptr @XGlobalPhase, align 4
  %24 = icmp eq i32 %23, 0
  br i1 %24, label %25, label %29

25:                                               ; preds = %2
  %26 = getelementptr inbounds %class.StackWatermark, ptr %5, i32 0, i32 4
  %27 = load ptr, ptr %26, align 8
  %28 = getelementptr inbounds %class.XStackWatermark, ptr %5, i32 0, i32 3
  call void @_ZN23XThreadLocalAllocBuffer6retireEP10JavaThreadP21ThreadLocalAllocStats(ptr noundef %27, ptr noundef %28)
  br label %32

29:                                               ; preds = %2
  %30 = getelementptr inbounds %class.StackWatermark, ptr %5, i32 0, i32 4
  %31 = load ptr, ptr %30, align 8
  call void @_ZN23XThreadLocalAllocBuffer5remapEP10JavaThread(ptr noundef %31)
  br label %32

32:                                               ; preds = %29, %25
  %33 = load ptr, ptr %4, align 8
  call void @_ZN14StackWatermark21start_processing_implEPv(ptr noundef nonnull align 8 dereferenceable(176) %5, ptr noundef %33)
  ret void
}