; Function Attrs: mustprogress nounwind uwtable
define hidden void @_ZN15XStackWatermark21start_processing_implEPv(ptr noundef nonnull align 8 dereferenceable(272) %0, ptr noundef %1) unnamed_addr #1 align 2 {
  %3 = getelementptr inbounds i8, ptr %0, i64 32
  %4 = load ptr, ptr %3, align 8
  %.not.i = icmp eq ptr %1, null
  %5 = getelementptr inbounds i8, ptr %0, i64 176
  %.0.i = select i1 %.not.i, ptr %5, ptr %1
  %6 = getelementptr inbounds i8, ptr %0, i64 192
  %7 = load ptr, ptr %4, align 8
  %8 = getelementptr inbounds i8, ptr %7, i64 184
  %9 = load ptr, ptr %8, align 8
  tail call void %9(ptr noundef nonnull align 8 dereferenceable(1800) %4, ptr noundef nonnull %.0.i, ptr noundef nonnull %6) #7
  %10 = load ptr, ptr %3, align 8
  %11 = getelementptr inbounds i8, ptr %10, i64 184
  %12 = load ptr, ptr %11, align 8
  %.not.i3 = icmp eq ptr %12, null
  %.pre5 = load i64, ptr @XAddressBadMask, align 8
  br i1 %.not.i3, label %_ZN16XThreadLocalData17do_invisible_rootIPFvPP7oopDescEEEvP6ThreadT_.exit, label %13

13:                                               ; preds = %2
  %14 = load ptr, ptr %12, align 8
  %15 = ptrtoint ptr %14 to i64
  %16 = and i64 %.pre5, %15
  %.not.i.i.i.i = icmp eq i64 %16, 0
  br i1 %.not.i.i.i.i, label %_ZN16XThreadLocalData17do_invisible_rootIPFvPP7oopDescEEEvP6ThreadT_.exit, label %17

17:                                               ; preds = %13
  %18 = tail call noundef i64 @_ZN8XBarrier44load_barrier_on_invisible_root_oop_slow_pathEm(i64 noundef %15) #7
  %19 = inttoptr i64 %18 to ptr
  store ptr %19, ptr %12, align 8
  %.pre = load ptr, ptr %3, align 8
  %.pre4 = load i64, ptr @XAddressBadMask, align 8
  br label %_ZN16XThreadLocalData17do_invisible_rootIPFvPP7oopDescEEEvP6ThreadT_.exit

_ZN16XThreadLocalData17do_invisible_rootIPFvPP7oopDescEEEvP6ThreadT_.exit: ; preds = %17, %13, %2
  %20 = phi i64 [ %.pre4, %17 ], [ %.pre5, %13 ], [ %.pre5, %2 ]
  %21 = phi ptr [ %.pre, %17 ], [ %10, %13 ], [ %10, %2 ]
  %22 = getelementptr inbounds i8, ptr %21, i64 40
  store i64 %20, ptr %22, align 8
  %23 = load i32, ptr @XGlobalPhase, align 4
  %24 = icmp eq i32 %23, 0
  %25 = load ptr, ptr %3, align 8
  br i1 %24, label %26, label %28

26:                                               ; preds = %_ZN16XThreadLocalData17do_invisible_rootIPFvPP7oopDescEEEvP6ThreadT_.exit
  %27 = getelementptr inbounds i8, ptr %0, i64 208
  tail call void @_ZN23XThreadLocalAllocBuffer6retireEP10JavaThreadP21ThreadLocalAllocStats(ptr noundef %25, ptr noundef nonnull %27) #7
  br label %29

28:                                               ; preds = %_ZN16XThreadLocalData17do_invisible_rootIPFvPP7oopDescEEEvP6ThreadT_.exit
  tail call void @_ZN23XThreadLocalAllocBuffer5remapEP10JavaThread(ptr noundef %25) #7
  br label %29

29:                                               ; preds = %28, %26
  tail call void @_ZN14StackWatermark21start_processing_implEPv(ptr noundef nonnull align 8 dereferenceable(176) %0, ptr noundef %1) #7
  ret void
}